target datalayout = "e-m:e-p270:32:32-p271:32:32-p272:64:64-i64:64-i128:128-f80:128-n8:16:32:64-S128"
target triple = "x86_64-pc-linux-gnu"

%"class.glslang::HlslGrammar" = type { %"class.glslang::HlslTokenStream.base", ptr, ptr, i8, ptr }
%"class.glslang::HlslTokenStream.base" = type <{ ptr, %"struct.glslang::HlslToken", ptr, %"class.glslang::TVector", %"class.glslang::TVector.0", %"class.glslang::TVector.4", [2 x %"struct.glslang::HlslToken"], i32, [4 x i8], [2 x %"struct.glslang::HlslToken"], i32 }>
%"struct.glslang::HlslToken" = type { %"struct.glslang::TSourceLoc", i32, %union.anon }
%"struct.glslang::TSourceLoc" = type { ptr, i32, i32, i32 }
%union.anon = type { ptr }
%"class.glslang::TVector" = type { %"class.std::vector" }
%"class.std::vector" = type { %"struct.std::_Vector_base" }
%"struct.std::_Vector_base" = type { %"struct.std::_Vector_base<const glslang::TVector<glslang::HlslToken> *, glslang::pool_allocator<const glslang::TVector<glslang::HlslToken> *>>::_Vector_impl" }
%"struct.std::_Vector_base<const glslang::TVector<glslang::HlslToken> *, glslang::pool_allocator<const glslang::TVector<glslang::HlslToken> *>>::_Vector_impl" = type { %"class.glslang::pool_allocator", %"struct.std::_Vector_base<const glslang::TVector<glslang::HlslToken> *, glslang::pool_allocator<const glslang::TVector<glslang::HlslToken> *>>::_Vector_impl_data" }
%"class.glslang::pool_allocator" = type { ptr }
%"struct.std::_Vector_base<const glslang::TVector<glslang::HlslToken> *, glslang::pool_allocator<const glslang::TVector<glslang::HlslToken> *>>::_Vector_impl_data" = type { ptr, ptr, ptr }
%"class.glslang::TVector.0" = type { %"class.std::vector.1" }
%"class.std::vector.1" = type { %"struct.std::_Vector_base.2" }
%"struct.std::_Vector_base.2" = type { %"struct.std::_Vector_base<int, glslang::pool_allocator<int>>::_Vector_impl" }
%"struct.std::_Vector_base<int, glslang::pool_allocator<int>>::_Vector_impl" = type { %"class.glslang::pool_allocator.3", %"struct.std::_Vector_base<int, glslang::pool_allocator<int>>::_Vector_impl_data" }
%"class.glslang::pool_allocator.3" = type { ptr }
%"struct.std::_Vector_base<int, glslang::pool_allocator<int>>::_Vector_impl_data" = type { ptr, ptr, ptr }
%"class.glslang::TVector.4" = type { %"class.std::vector.5" }
%"class.std::vector.5" = type { %"struct.std::_Vector_base.6" }
%"struct.std::_Vector_base.6" = type { %"struct.std::_Vector_base<glslang::HlslToken, glslang::pool_allocator<glslang::HlslToken>>::_Vector_impl" }
%"struct.std::_Vector_base<glslang::HlslToken, glslang::pool_allocator<glslang::HlslToken>>::_Vector_impl" = type { %"class.glslang::pool_allocator.7", %"struct.std::_Vector_base<glslang::HlslToken, glslang::pool_allocator<glslang::HlslToken>>::_Vector_impl_data" }
%"class.glslang::pool_allocator.7" = type { ptr }
%"struct.std::_Vector_base<glslang::HlslToken, glslang::pool_allocator<glslang::HlslToken>>::_Vector_impl_data" = type { ptr, ptr, ptr }
%"class.glslang::HlslTokenStream" = type <{ ptr, %"struct.glslang::HlslToken", ptr, %"class.glslang::TVector", %"class.glslang::TVector.0", %"class.glslang::TVector.4", [2 x %"struct.glslang::HlslToken"], i32, [4 x i8], [2 x %"struct.glslang::HlslToken"], i32, [4 x i8] }>

; Function Attrs: mustprogress nounwind uwtable
define noundef zeroext i1 @_ZN7glslang11HlslGrammar13acceptLiteralERPNS_12TIntermTypedE(ptr noundef nonnull align 8 dereferenceable(360) %0, ptr noundef nonnull align 8 dereferenceable(8) %1) #0 align 2 {
  %3 = alloca i1, align 1
  %4 = alloca ptr, align 8
  %5 = alloca ptr, align 8
  store ptr %0, ptr %4, align 8
  store ptr %1, ptr %5, align 8
  %6 = load ptr, ptr %4, align 8
  %7 = getelementptr inbounds %"class.glslang::HlslTokenStream", ptr %6, i32 0, i32 1
  %8 = getelementptr inbounds %"struct.glslang::HlslToken", ptr %7, i32 0, i32 1
  %9 = load i32, ptr %8, align 8
  switch i32 %9, label %81 [
    i32 317, label %10
    i32 318, label %20
    i32 314, label %30
    i32 315, label %40
    i32 316, label %50
    i32 319, label %60
    i32 320, label %71
  ]

10:                                               ; preds = %2
  %11 = getelementptr inbounds %"class.glslang::HlslGrammar", ptr %6, i32 0, i32 2
  %12 = load ptr, ptr %11, align 8
  %13 = getelementptr inbounds %"class.glslang::HlslTokenStream", ptr %6, i32 0, i32 1
  %14 = getelementptr inbounds %"struct.glslang::HlslToken", ptr %13, i32 0, i32 2
  %15 = load i32, ptr %14, align 8
  %16 = getelementptr inbounds %"class.glslang::HlslTokenStream", ptr %6, i32 0, i32 1
  %17 = getelementptr inbounds %"struct.glslang::HlslToken", ptr %16, i32 0, i32 0
  %18 = call noundef ptr @_ZNK7glslang13TIntermediate16addConstantUnionEiRKNS_10TSourceLocEb(ptr noundef nonnull align 8 dereferenceable(2024) %12, i32 noundef %15, ptr noundef nonnull align 8 dereferenceable(24) %17, i1 noundef zeroext true)
  %19 = load ptr, ptr %5, align 8
  store ptr %18, ptr %19, align 8
  br label %82

20:                                               ; preds = %2
  %21 = getelementptr inbounds %"class.glslang::HlslGrammar", ptr %6, i32 0, i32 2
  %22 = load ptr, ptr %21, align 8
  %23 = getelementptr inbounds %"class.glslang::HlslTokenStream", ptr %6, i32 0, i32 1
  %24 = getelementptr inbounds %"struct.glslang::HlslToken", ptr %23, i32 0, i32 2
  %25 = load i32, ptr %24, align 8
  %26 = getelementptr inbounds %"class.glslang::HlslTokenStream", ptr %6, i32 0, i32 1
  %27 = getelementptr inbounds %"struct.glslang::HlslToken", ptr %26, i32 0, i32 0
  %28 = call noundef ptr @_ZNK7glslang13TIntermediate16addConstantUnionEjRKNS_10TSourceLocEb(ptr noundef nonnull align 8 dereferenceable(2024) %22, i32 noundef %25, ptr noundef nonnull align 8 dereferenceable(24) %27, i1 noundef zeroext true)
  %29 = load ptr, ptr %5, align 8
  store ptr %28, ptr %29, align 8
  br label %82

30:                                               ; preds = %2
  %31 = getelementptr inbounds %"class.glslang::HlslGrammar", ptr %6, i32 0, i32 2
  %32 = load ptr, ptr %31, align 8
  %33 = getelementptr inbounds %"class.glslang::HlslTokenStream", ptr %6, i32 0, i32 1
  %34 = getelementptr inbounds %"struct.glslang::HlslToken", ptr %33, i32 0, i32 2
  %35 = load double, ptr %34, align 8
  %36 = getelementptr inbounds %"class.glslang::HlslTokenStream", ptr %6, i32 0, i32 1
  %37 = getelementptr inbounds %"struct.glslang::HlslToken", ptr %36, i32 0, i32 0
  %38 = call noundef ptr @_ZNK7glslang13TIntermediate16addConstantUnionEdNS_10TBasicTypeERKNS_10TSourceLocEb(ptr noundef nonnull align 8 dereferenceable(2024) %32, double noundef %35, i32 noundef 3, ptr noundef nonnull align 8 dereferenceable(24) %37, i1 noundef zeroext true)
  %39 = load ptr, ptr %5, align 8
  store ptr %38, ptr %39, align 8
  br label %82

40:                                               ; preds = %2
  %41 = getelementptr inbounds %"class.glslang::HlslGrammar", ptr %6, i32 0, i32 2
  %42 = load ptr, ptr %41, align 8
  %43 = getelementptr inbounds %"class.glslang::HlslTokenStream", ptr %6, i32 0, i32 1
  %44 = getelementptr inbounds %"struct.glslang::HlslToken", ptr %43, i32 0, i32 2
  %45 = load double, ptr %44, align 8
  %46 = getelementptr inbounds %"class.glslang::HlslTokenStream", ptr %6, i32 0, i32 1
  %47 = getelementptr inbounds %"struct.glslang::HlslToken", ptr %46, i32 0, i32 0
  %48 = call noundef ptr @_ZNK7glslang13TIntermediate16addConstantUnionEdNS_10TBasicTypeERKNS_10TSourceLocEb(ptr noundef nonnull align 8 dereferenceable(2024) %42, double noundef %45, i32 noundef 1, ptr noundef nonnull align 8 dereferenceable(24) %47, i1 noundef zeroext true)
  %49 = load ptr, ptr %5, align 8
  store ptr %48, ptr %49, align 8
  br label %82

50:                                               ; preds = %2
  %51 = getelementptr inbounds %"class.glslang::HlslGrammar", ptr %6, i32 0, i32 2
  %52 = load ptr, ptr %51, align 8
  %53 = getelementptr inbounds %"class.glslang::HlslTokenStream", ptr %6, i32 0, i32 1
  %54 = getelementptr inbounds %"struct.glslang::HlslToken", ptr %53, i32 0, i32 2
  %55 = load double, ptr %54, align 8
  %56 = getelementptr inbounds %"class.glslang::HlslTokenStream", ptr %6, i32 0, i32 1
  %57 = getelementptr inbounds %"struct.glslang::HlslToken", ptr %56, i32 0, i32 0
  %58 = call noundef ptr @_ZNK7glslang13TIntermediate16addConstantUnionEdNS_10TBasicTypeERKNS_10TSourceLocEb(ptr noundef nonnull align 8 dereferenceable(2024) %52, double noundef %55, i32 noundef 2, ptr noundef nonnull align 8 dereferenceable(24) %57, i1 noundef zeroext true)
  %59 = load ptr, ptr %5, align 8
  store ptr %58, ptr %59, align 8
  br label %82

60:                                               ; preds = %2
  %61 = getelementptr inbounds %"class.glslang::HlslGrammar", ptr %6, i32 0, i32 2
  %62 = load ptr, ptr %61, align 8
  %63 = getelementptr inbounds %"class.glslang::HlslTokenStream", ptr %6, i32 0, i32 1
  %64 = getelementptr inbounds %"struct.glslang::HlslToken", ptr %63, i32 0, i32 2
  %65 = load i8, ptr %64, align 8
  %66 = trunc i8 %65 to i1
  %67 = getelementptr inbounds %"class.glslang::HlslTokenStream", ptr %6, i32 0, i32 1
  %68 = getelementptr inbounds %"struct.glslang::HlslToken", ptr %67, i32 0, i32 0
  %69 = call noundef ptr @_ZNK7glslang13TIntermediate16addConstantUnionEbRKNS_10TSourceLocEb(ptr noundef nonnull align 8 dereferenceable(2024) %62, i1 noundef zeroext %66, ptr noundef nonnull align 8 dereferenceable(24) %68, i1 noundef zeroext true)
  %70 = load ptr, ptr %5, align 8
  store ptr %69, ptr %70, align 8
  br label %82

71:                                               ; preds = %2
  %72 = getelementptr inbounds %"class.glslang::HlslGrammar", ptr %6, i32 0, i32 2
  %73 = load ptr, ptr %72, align 8
  %74 = getelementptr inbounds %"class.glslang::HlslTokenStream", ptr %6, i32 0, i32 1
  %75 = getelementptr inbounds %"struct.glslang::HlslToken", ptr %74, i32 0, i32 2
  %76 = load ptr, ptr %75, align 8
  %77 = getelementptr inbounds %"class.glslang::HlslTokenStream", ptr %6, i32 0, i32 1
  %78 = getelementptr inbounds %"struct.glslang::HlslToken", ptr %77, i32 0, i32 0
  %79 = call noundef ptr @_ZNK7glslang13TIntermediate16addConstantUnionEPKNSt7__cxx1112basic_stringIcSt11char_traitsIcENS_14pool_allocatorIcEEEERKNS_10TSourceLocEb(ptr noundef nonnull align 8 dereferenceable(2024) %73, ptr noundef %76, ptr noundef nonnull align 8 dereferenceable(24) %78, i1 noundef zeroext true)
  %80 = load ptr, ptr %5, align 8
  store ptr %79, ptr %80, align 8
  br label %82

81:                                               ; preds = %2
  store i1 false, ptr %3, align 1
  br label %83

82:                                               ; preds = %71, %60, %50, %40, %30, %20, %10
  call void @_ZN7glslang15HlslTokenStream12advanceTokenEv(ptr noundef nonnull align 8 dereferenceable(324) %6)
  store i1 true, ptr %3, align 1
  br label %83

83:                                               ; preds = %82, %81
  %84 = load i1, ptr %3, align 1
  ret i1 %84
}