; Function Attrs: mustprogress nounwind uwtable
define noundef zeroext i1 @_ZN7glslang11HlslGrammar13acceptLiteralERPNS_12TIntermTypedE(ptr noundef nonnull align 8 dereferenceable(360) %0, ptr nocapture noundef nonnull writeonly align 8 dereferenceable(8) %1) local_unnamed_addr #0 align 2 {
  %3 = getelementptr inbounds i8, ptr %0, i64 8
  %4 = getelementptr inbounds i8, ptr %0, i64 32
  %5 = load i32, ptr %4, align 8
  switch i32 %5, label %50 [
    i32 317, label %6
    i32 318, label %12
    i32 314, label %18
    i32 315, label %24
    i32 316, label %30
    i32 319, label %36
    i32 320, label %43
  ]

6:                                                ; preds = %2
  %7 = getelementptr inbounds i8, ptr %0, i64 336
  %8 = load ptr, ptr %7, align 8
  %9 = getelementptr inbounds i8, ptr %0, i64 40
  %10 = load i32, ptr %9, align 8
  %11 = tail call noundef ptr @_ZNK7glslang13TIntermediate16addConstantUnionEiRKNS_10TSourceLocEb(ptr noundef nonnull align 8 dereferenceable(2024) %8, i32 noundef %10, ptr noundef nonnull align 8 dereferenceable(24) %3, i1 noundef zeroext true) #16
  br label %49

12:                                               ; preds = %2
  %13 = getelementptr inbounds i8, ptr %0, i64 336
  %14 = load ptr, ptr %13, align 8
  %15 = getelementptr inbounds i8, ptr %0, i64 40
  %16 = load i32, ptr %15, align 8
  %17 = tail call noundef ptr @_ZNK7glslang13TIntermediate16addConstantUnionEjRKNS_10TSourceLocEb(ptr noundef nonnull align 8 dereferenceable(2024) %14, i32 noundef %16, ptr noundef nonnull align 8 dereferenceable(24) %3, i1 noundef zeroext true) #16
  br label %49

18:                                               ; preds = %2
  %19 = getelementptr inbounds i8, ptr %0, i64 336
  %20 = load ptr, ptr %19, align 8
  %21 = getelementptr inbounds i8, ptr %0, i64 40
  %22 = load double, ptr %21, align 8
  %23 = tail call noundef ptr @_ZNK7glslang13TIntermediate16addConstantUnionEdNS_10TBasicTypeERKNS_10TSourceLocEb(ptr noundef nonnull align 8 dereferenceable(2024) %20, double noundef %22, i32 noundef 3, ptr noundef nonnull align 8 dereferenceable(24) %3, i1 noundef zeroext true) #16
  br label %49

24:                                               ; preds = %2
  %25 = getelementptr inbounds i8, ptr %0, i64 336
  %26 = load ptr, ptr %25, align 8
  %27 = getelementptr inbounds i8, ptr %0, i64 40
  %28 = load double, ptr %27, align 8
  %29 = tail call noundef ptr @_ZNK7glslang13TIntermediate16addConstantUnionEdNS_10TBasicTypeERKNS_10TSourceLocEb(ptr noundef nonnull align 8 dereferenceable(2024) %26, double noundef %28, i32 noundef 1, ptr noundef nonnull align 8 dereferenceable(24) %3, i1 noundef zeroext true) #16
  br label %49

30:                                               ; preds = %2
  %31 = getelementptr inbounds i8, ptr %0, i64 336
  %32 = load ptr, ptr %31, align 8
  %33 = getelementptr inbounds i8, ptr %0, i64 40
  %34 = load double, ptr %33, align 8
  %35 = tail call noundef ptr @_ZNK7glslang13TIntermediate16addConstantUnionEdNS_10TBasicTypeERKNS_10TSourceLocEb(ptr noundef nonnull align 8 dereferenceable(2024) %32, double noundef %34, i32 noundef 2, ptr noundef nonnull align 8 dereferenceable(24) %3, i1 noundef zeroext true) #16
  br label %49

36:                                               ; preds = %2
  %37 = getelementptr inbounds i8, ptr %0, i64 336
  %38 = load ptr, ptr %37, align 8
  %39 = getelementptr inbounds i8, ptr %0, i64 40
  %40 = load i8, ptr %39, align 8
  %41 = trunc i8 %40 to i1
  %42 = tail call noundef ptr @_ZNK7glslang13TIntermediate16addConstantUnionEbRKNS_10TSourceLocEb(ptr noundef nonnull align 8 dereferenceable(2024) %38, i1 noundef zeroext %41, ptr noundef nonnull align 8 dereferenceable(24) %3, i1 noundef zeroext true) #16
  br label %49

43:                                               ; preds = %2
  %44 = getelementptr inbounds i8, ptr %0, i64 336
  %45 = load ptr, ptr %44, align 8
  %46 = getelementptr inbounds i8, ptr %0, i64 40
  %47 = load ptr, ptr %46, align 8
  %48 = tail call noundef ptr @_ZNK7glslang13TIntermediate16addConstantUnionEPKNSt7__cxx1112basic_stringIcSt11char_traitsIcENS_14pool_allocatorIcEEEERKNS_10TSourceLocEb(ptr noundef nonnull align 8 dereferenceable(2024) %45, ptr noundef %47, ptr noundef nonnull align 8 dereferenceable(24) %3, i1 noundef zeroext true) #16
  br label %49

49:                                               ; preds = %43, %36, %30, %24, %18, %12, %6
  %.sink = phi ptr [ %48, %43 ], [ %42, %36 ], [ %35, %30 ], [ %29, %24 ], [ %23, %18 ], [ %17, %12 ], [ %11, %6 ]
  store ptr %.sink, ptr %1, align 8
  tail call void @_ZN7glslang15HlslTokenStream12advanceTokenEv(ptr noundef nonnull align 8 dereferenceable(324) %0) #16
  br label %50

50:                                               ; preds = %2, %49
  %.0 = phi i1 [ true, %49 ], [ false, %2 ]
  ret i1 %.0
}